; Function Attrs: mustprogress uwtable
define hidden noundef nonnull ptr @_ZN19OpenColorIO_v2_5dev33ConvertGradingStyleAndDirToStringENS_12GradingStyleENS_18TransformDirectionE(i32 noundef %0, i32 noundef %1) local_unnamed_addr #0 personality ptr @__gxx_personality_v0 {
  %3 = alloca %"class.std::__cxx11::basic_ostringstream", align 8
  %4 = alloca %"class.std::__cxx11::basic_string", align 8
  %5 = icmp eq i32 %1, 0
  switch i32 %0, label %12 [
    i32 0, label %6
    i32 1, label %8
    i32 2, label %10
  ]

6:                                                ; preds = %2
  %7 = select i1 %5, ptr @_ZN19OpenColorIO_v2_5dev12_GLOBAL__N_121GRADING_STYLE_LOG_FWDE, ptr @_ZN19OpenColorIO_v2_5dev12_GLOBAL__N_121GRADING_STYLE_LOG_REVE
  br label %35

8:                                                ; preds = %2
  %9 = select i1 %5, ptr @_ZN19OpenColorIO_v2_5dev12_GLOBAL__N_121GRADING_STYLE_LIN_FWDE, ptr @_ZN19OpenColorIO_v2_5dev12_GLOBAL__N_121GRADING_STYLE_LIN_REVE
  br label %35

10:                                               ; preds = %2
  %11 = select i1 %5, ptr @_ZN19OpenColorIO_v2_5dev12_GLOBAL__N_123GRADING_STYLE_VIDEO_FWDE, ptr @_ZN19OpenColorIO_v2_5dev12_GLOBAL__N_123GRADING_STYLE_VIDEO_REVE
  br label %35

12:                                               ; preds = %2
  call void @llvm.lifetime.start.p0(i64 376, ptr nonnull %3) #10
  call void @_ZNSt7__cxx1119basic_ostringstreamIcSt11char_traitsIcESaIcEEC1Ev(ptr noundef nonnull align 8 dereferenceable(112) %3)
  %13 = invoke noundef nonnull align 8 dereferenceable(8) ptr @_ZSt16__ostream_insertIcSt11char_traitsIcEERSt13basic_ostreamIT_T0_ES6_PKS3_l(ptr noundef nonnull align 8 dereferenceable(8) %3, ptr noundef nonnull @.str.7, i64 noundef 23)
          to label %_ZStlsISt11char_traitsIcEERSt13basic_ostreamIcT_ES5_PKc.exit unwind label %20

_ZStlsISt11char_traitsIcEERSt13basic_ostreamIcT_ES5_PKc.exit: ; preds = %12
  %14 = invoke noundef nonnull align 8 dereferenceable(8) ptr @_ZNSolsEi(ptr noundef nonnull align 8 dereferenceable(8) %3, i32 noundef %0)
          to label %15 unwind label %20

15:                                               ; preds = %_ZStlsISt11char_traitsIcEERSt13basic_ostreamIcT_ES5_PKc.exit
  %16 = call ptr @__cxa_allocate_exception(i64 16) #10
  call void @llvm.lifetime.start.p0(i64 32, ptr nonnull %4) #10
  invoke void @_ZNKSt7__cxx1119basic_ostringstreamIcSt11char_traitsIcESaIcEE3strEv(ptr dead_on_unwind nonnull writable sret(%"class.std::__cxx11::basic_string") align 8 %4, ptr noundef nonnull align 8 dereferenceable(112) %3)
          to label %17 unwind label %_ZNSt7__cxx1112basic_stringIcSt11char_traitsIcESaIcEED2Ev.exit.thread

17:                                               ; preds = %15
  %18 = load ptr, ptr %4, align 8, !tbaa !6
  invoke void @_ZN19OpenColorIO_v2_5dev9ExceptionC1EPKc(ptr noundef nonnull align 8 dereferenceable(16) %16, ptr noundef %18)
          to label %19 unwind label %23

19:                                               ; preds = %17
  invoke void @__cxa_throw(ptr nonnull %16, ptr nonnull @_ZTIN19OpenColorIO_v2_5dev9ExceptionE, ptr nonnull @_ZN19OpenColorIO_v2_5dev9ExceptionD1Ev) #11
          to label %36 unwind label %23

20:                                               ; preds = %12, %_ZStlsISt11char_traitsIcEERSt13basic_ostreamIcT_ES5_PKc.exit
  %21 = landingpad { ptr, i32 }
          cleanup
  br label %34

_ZNSt7__cxx1112basic_stringIcSt11char_traitsIcESaIcEED2Ev.exit.thread: ; preds = %15
  %22 = landingpad { ptr, i32 }
          cleanup
  call void @llvm.lifetime.end.p0(i64 32, ptr nonnull %4) #10
  br label %33

23:                                               ; preds = %19, %17
  %.0 = phi i1 [ false, %19 ], [ true, %17 ]
  %24 = landingpad { ptr, i32 }
          cleanup
  %25 = load ptr, ptr %4, align 8, !tbaa !6
  %26 = getelementptr inbounds nuw i8, ptr %4, i64 16
  %27 = icmp eq ptr %25, %26
  br i1 %27, label %_ZNKSt7__cxx1112basic_stringIcSt11char_traitsIcESaIcEE11_M_is_localEv.exit.thread.i.i, label %_ZNSt7__cxx1112basic_stringIcSt11char_traitsIcESaIcEED2Ev.exit

_ZNKSt7__cxx1112basic_stringIcSt11char_traitsIcESaIcEE11_M_is_localEv.exit.thread.i.i: ; preds = %23
  %28 = getelementptr inbounds nuw i8, ptr %4, i64 8
  %29 = load i64, ptr %28, align 8, !tbaa !12
  %30 = icmp ult i64 %29, 16
  call void @llvm.assume(i1 %30)
  call void @llvm.lifetime.end.p0(i64 32, ptr nonnull %4) #10
  br i1 %.0, label %33, label %34

_ZNSt7__cxx1112basic_stringIcSt11char_traitsIcESaIcEED2Ev.exit: ; preds = %23
  %31 = load i64, ptr %26, align 8, !tbaa !3
  %32 = add i64 %31, 1
  call void @_ZdlPvm(ptr noundef %25, i64 noundef %32) #12
  call void @llvm.lifetime.end.p0(i64 32, ptr nonnull %4) #10
  br i1 %.0, label %33, label %34

33:                                               ; preds = %_ZNKSt7__cxx1112basic_stringIcSt11char_traitsIcESaIcEE11_M_is_localEv.exit.thread.i.i, %_ZNSt7__cxx1112basic_stringIcSt11char_traitsIcESaIcEED2Ev.exit.thread, %_ZNSt7__cxx1112basic_stringIcSt11char_traitsIcESaIcEED2Ev.exit
  %.pn18 = phi { ptr, i32 } [ %22, %_ZNSt7__cxx1112basic_stringIcSt11char_traitsIcESaIcEED2Ev.exit.thread ], [ %24, %_ZNSt7__cxx1112basic_stringIcSt11char_traitsIcESaIcEED2Ev.exit ], [ %24, %_ZNKSt7__cxx1112basic_stringIcSt11char_traitsIcESaIcEE11_M_is_localEv.exit.thread.i.i ]
  call void @__cxa_free_exception(ptr %16) #10
  br label %34

34:                                               ; preds = %_ZNKSt7__cxx1112basic_stringIcSt11char_traitsIcESaIcEE11_M_is_localEv.exit.thread.i.i, %_ZNSt7__cxx1112basic_stringIcSt11char_traitsIcESaIcEED2Ev.exit, %33, %20
  %.pn.pn = phi { ptr, i32 } [ %.pn18, %33 ], [ %24, %_ZNSt7__cxx1112basic_stringIcSt11char_traitsIcESaIcEED2Ev.exit ], [ %21, %20 ], [ %24, %_ZNKSt7__cxx1112basic_stringIcSt11char_traitsIcESaIcEE11_M_is_localEv.exit.thread.i.i ]
  call void @_ZNSt7__cxx1119basic_ostringstreamIcSt11char_traitsIcESaIcEED1Ev(ptr noundef nonnull align 8 dereferenceable(112) %3) #10
  call void @llvm.lifetime.end.p0(i64 376, ptr nonnull %3) #10
  resume { ptr, i32 } %.pn.pn

35:                                               ; preds = %10, %8, %6
  %.013 = phi ptr [ %11, %10 ], [ %9, %8 ], [ %7, %6 ]
  ret ptr %.013

36:                                               ; preds = %19
  unreachable
}